target datalayout = "e-m:e-p270:32:32-p271:32:32-p272:64:64-i64:64-i128:128-f80:128-n8:16:32:64-S128"
target triple = "x86_64-pc-linux-gnu"

%"class.std::__cxx11::basic_string" = type { %"struct.std::__cxx11::basic_string<char>::_Alloc_hider", i64, %union.anon }
%"struct.std::__cxx11::basic_string<char>::_Alloc_hider" = type { ptr }
%union.anon = type { i64, [8 x i8] }

; Function Attrs: mustprogress uwtable
define dso_local noundef zeroext i1 @_ZN27cmCMakePresetsGraphInternal16PresetNameHelperERNSt7__cxx1112basic_stringIcSt11char_traitsIcESaIcEEEPKN4Json5ValueEP11cmJSONState(ptr noundef nonnull align 8 dereferenceable(32) %0, ptr noundef %1, ptr noundef %2) #4 {
  %4 = alloca i1, align 1
  %5 = alloca ptr, align 8
  %6 = alloca ptr, align 8
  %7 = alloca ptr, align 8
  %8 = alloca %"class.std::__cxx11::basic_string", align 8
  %9 = alloca i1, align 1
  %10 = alloca %"class.std::__cxx11::basic_string", align 8
  store ptr %0, ptr %5, align 8
  store ptr %1, ptr %6, align 8
  store ptr %2, ptr %7, align 8
  %11 = load ptr, ptr %6, align 8
  %12 = icmp ne ptr %11, null
  store i1 false, ptr %9, align 1
  br i1 %12, label %13, label %19

13:                                               ; preds = %3
  %14 = load ptr, ptr %6, align 8
  %15 = call noundef zeroext i1 @_ZNK4Json5Value8isStringEv(ptr noundef nonnull align 8 dereferenceable(40) %14)
  br i1 %15, label %16, label %19

16:                                               ; preds = %13
  %17 = load ptr, ptr %6, align 8
  call void @_ZNK4Json5Value8asStringB5cxx11Ev(ptr dead_on_unwind writable sret(%"class.std::__cxx11::basic_string") align 8 %8, ptr noundef nonnull align 8 dereferenceable(40) %17)
  store i1 true, ptr %9, align 1
  %18 = call noundef zeroext i1 @_ZNKSt7__cxx1112basic_stringIcSt11char_traitsIcESaIcEE5emptyEv(ptr noundef nonnull align 8 dereferenceable(32) %8) #3
  br label %19

19:                                               ; preds = %16, %13, %3
  %20 = phi i1 [ true, %13 ], [ true, %3 ], [ %18, %16 ]
  %21 = load i1, ptr %9, align 1
  br i1 %21, label %22, label %23

22:                                               ; preds = %19
  call void @_ZNSt7__cxx1112basic_stringIcSt11char_traitsIcESaIcEED1Ev(ptr noundef nonnull align 8 dereferenceable(32) %8) #3
  br label %23

23:                                               ; preds = %22, %19
  br i1 %20, label %24, label %27

24:                                               ; preds = %23
  %25 = load ptr, ptr %6, align 8
  %26 = load ptr, ptr %7, align 8
  call void @_ZN20cmCMakePresetsErrors19INVALID_PRESET_NAMEEPKN4Json5ValueEP11cmJSONState(ptr noundef %25, ptr noundef %26)
  store i1 false, ptr %4, align 1
  br label %31

27:                                               ; preds = %23
  %28 = load ptr, ptr %6, align 8
  call void @_ZNK4Json5Value8asStringB5cxx11Ev(ptr dead_on_unwind writable sret(%"class.std::__cxx11::basic_string") align 8 %10, ptr noundef nonnull align 8 dereferenceable(40) %28)
  %29 = load ptr, ptr %5, align 8
  %30 = call noundef nonnull align 8 dereferenceable(32) ptr @_ZNSt7__cxx1112basic_stringIcSt11char_traitsIcESaIcEEaSEOS4_(ptr noundef nonnull align 8 dereferenceable(32) %29, ptr noundef nonnull align 8 dereferenceable(32) %10) #3
  call void @_ZNSt7__cxx1112basic_stringIcSt11char_traitsIcESaIcEED1Ev(ptr noundef nonnull align 8 dereferenceable(32) %10) #3
  store i1 true, ptr %4, align 1
  br label %31

31:                                               ; preds = %27, %24
  %32 = load i1, ptr %4, align 1
  ret i1 %32
}